/* This testcase is part of GDB, the GNU debugger.

   Copyright 2018-2021 Free Software Foundation, Inc.

   This program is free software; you can redistribute it and/or modify
   it under the terms of the GNU General Public License as published by
   the Free Software Foundation; either version 3 of the License, or
   (at your option) any later version.

   This program is distributed in the hope that it will be useful,
   but WITHOUT ANY WARRANTY; without even the implied warranty of
   MERCHANTABILITY or FITNESS FOR A PARTICULAR PURPOSE.  See the
   GNU General Public License for more details.

   You should have received a copy of the GNU General Public License
   along with this program.  If not, see <http://www.gnu.org/licenses/>.


   This file has been generated using gcc version 8.1.1 20180502:
   gcc -S -dA -g ptwrite.c -o x86_64-ptwrite.S.  */

	.file	"ptwrite.c"
	.text
.Ltext0:
	.globl	ptwrite64
	.type	ptwrite64, @function
ptwrite64:
.LFB0:
	.file 1 "ptwrite.c"
	# ptwrite.c:22:1
	.loc 1 22 1
	.cfi_startproc
# BLOCK 2 seq:0
# PRED: ENTRY (FALLTHRU)
	pushq	%rbp
	.cfi_def_cfa_offset 16
	.cfi_offset 6, -16
	movq	%rsp, %rbp
	.cfi_def_cfa_register 6
	pushq	%rbx
	.cfi_offset 3, -24
	movq	%rdi, -16(%rbp)
	# ptwrite.c:23:3
	.loc 1 23 3
	movq	-16(%rbp), %rax
	movq	%rax, %rbx
#APP
# 23 "ptwrite.c" 1
	PTWRITE %rbx;
# 0 "" 2
	# ptwrite.c:24:1
	.loc 1 24 1
#NO_APP
	nop
	popq	%rbx
	popq	%rbp
	.cfi_def_cfa 7, 8
# SUCC: EXIT [always] 
	ret
	.cfi_endproc
.LFE0:
	.size	ptwrite64, .-ptwrite64
	.globl	ptwrite32
	.type	ptwrite32, @function
ptwrite32:
.LFB1:
	# ptwrite.c:28:1
	.loc 1 28 1
	.cfi_startproc
# BLOCK 2 seq:0
# PRED: ENTRY (FALLTHRU)
	pushq	%rbp
	.cfi_def_cfa_offset 16
	.cfi_offset 6, -16
	movq	%rsp, %rbp
	.cfi_def_cfa_register 6
	pushq	%rbx
	.cfi_offset 3, -24
	movl	%edi, -12(%rbp)
	# ptwrite.c:29:3
	.loc 1 29 3
	movl	-12(%rbp), %eax
	movl	%eax, %ebx
#APP
# 29 "ptwrite.c" 1
	PTWRITE %ebx;
# 0 "" 2
	# ptwrite.c:30:1
	.loc 1 30 1
#NO_APP
	nop
	popq	%rbx
	popq	%rbp
	.cfi_def_cfa 7, 8
# SUCC: EXIT [always] 
	ret
	.cfi_endproc
.LFE1:
	.size	ptwrite32, .-ptwrite32
	.globl	main
	.type	main, @function
main:
.LFB2:
	# ptwrite.c:34:1
	.loc 1 34 1
	.cfi_startproc
# BLOCK 2 seq:0
# PRED: ENTRY (FALLTHRU)
	pushq	%rbp
	.cfi_def_cfa_offset 16
	.cfi_offset 6, -16
	movq	%rsp, %rbp
	.cfi_def_cfa_register 6
	# ptwrite.c:36:3
	.loc 1 36 3
	movl	$66, %edi
	call	ptwrite64
	# ptwrite.c:37:3
	.loc 1 37 3
	movl	$67, %edi
	call	ptwrite32
	# ptwrite.c:39:10
	.loc 1 39 10
	movl	$0, %eax
	# ptwrite.c:40:1
	.loc 1 40 1
	popq	%rbp
	.cfi_def_cfa 7, 8
# SUCC: EXIT [always] 
	ret
	.cfi_endproc
.LFE2:
	.size	main, .-main
.Letext0:
	.file 2 "/usr/include/bits/types.h"
	.file 3 "/usr/include/bits/stdint-uintn.h"
	.section	.note.GNU-stack,"",@progbits
